target datalayout = "e-m:e-p270:32:32-p271:32:32-p272:64:64-i64:64-i128:128-f80:128-n8:16:32:64-S128"
target triple = "x86_64-pc-linux-gnu"

%struct.dsm_control_header = type { i32, i32, i32, [0 x %struct.dsm_control_item] }
%struct.dsm_control_item = type { i32, i32, i64, i64, ptr, i8 }

@.str.1 = private unnamed_addr constant [6 x i8] c"dsm.c\00", align 1
@.str.3 = private unnamed_addr constant [75 x i8] c"cleaning up orphaned dynamic shared memory with ID %u (reference count %u)\00", align 1
@__func__.dsm_cleanup_using_control_segment = private unnamed_addr constant [34 x i8] c"dsm_cleanup_using_control_segment\00", align 1
@.str.4 = private unnamed_addr constant [61 x i8] c"cleaning up dynamic shared memory control segment with ID %u\00", align 1

; Function Attrs: nounwind uwtable
define internal i64 @dsm_control_bytes_needed(i32 noundef %0) #0 {
  %2 = alloca i32, align 4
  store i32 %0, ptr %2, align 4
  %3 = load i32, ptr %2, align 4
  %4 = zext i32 %3 to i64
  %5 = mul i64 40, %4
  %6 = add i64 16, %5
  ret i64 %6
}

; Function Attrs: inlinehint nounwind uwtable
define internal zeroext i1 @is_main_region_dsm_handle(i32 noundef %0) #4 {
  %2 = alloca i32, align 4
  store i32 %0, ptr %2, align 4
  %3 = load i32, ptr %2, align 4
  %4 = and i32 %3, 1
  %5 = icmp ne i32 %4, 0
  ret i1 %5
}

; Function Attrs: nounwind uwtable
define internal zeroext i1 @dsm_control_segment_sane(ptr noundef %0, i64 noundef %1) #0 {
  %3 = alloca i1, align 1
  %4 = alloca ptr, align 8
  %5 = alloca i64, align 8
  store ptr %0, ptr %4, align 8
  store i64 %1, ptr %5, align 8
  %6 = load i64, ptr %5, align 8
  %7 = icmp ult i64 %6, 16
  br i1 %7, label %8, label %9

8:                                                ; preds = %2
  store i1 false, ptr %3, align 1
  br label %33

9:                                                ; preds = %2
  %10 = load ptr, ptr %4, align 8
  %11 = getelementptr inbounds nuw %struct.dsm_control_header, ptr %10, i32 0, i32 0
  %12 = load i32, ptr %11, align 8
  %13 = icmp ne i32 %12, -1706017486
  br i1 %13, label %14, label %15

14:                                               ; preds = %9
  store i1 false, ptr %3, align 1
  br label %33

15:                                               ; preds = %9
  %16 = load ptr, ptr %4, align 8
  %17 = getelementptr inbounds nuw %struct.dsm_control_header, ptr %16, i32 0, i32 2
  %18 = load i32, ptr %17, align 8
  %19 = call i64 @dsm_control_bytes_needed(i32 noundef %18)
  %20 = load i64, ptr %5, align 8
  %21 = icmp ugt i64 %19, %20
  br i1 %21, label %22, label %23

22:                                               ; preds = %15
  store i1 false, ptr %3, align 1
  br label %33

23:                                               ; preds = %15
  %24 = load ptr, ptr %4, align 8
  %25 = getelementptr inbounds nuw %struct.dsm_control_header, ptr %24, i32 0, i32 1
  %26 = load i32, ptr %25, align 4
  %27 = load ptr, ptr %4, align 8
  %28 = getelementptr inbounds nuw %struct.dsm_control_header, ptr %27, i32 0, i32 2
  %29 = load i32, ptr %28, align 8
  %30 = icmp ugt i32 %26, %29
  br i1 %30, label %31, label %32

31:                                               ; preds = %23
  store i1 false, ptr %3, align 1
  br label %33

32:                                               ; preds = %23
  store i1 true, ptr %3, align 1
  br label %33

33:                                               ; preds = %32, %31, %22, %14, %8
  %34 = load i1, ptr %3, align 1
  ret i1 %34
}

; Function Attrs: nounwind uwtable
define dso_local void @dsm_cleanup_using_control_segment(i32 noundef %0) #0 {
  %2 = alloca i32, align 4
  %3 = alloca ptr, align 8
  %4 = alloca ptr, align 8
  %5 = alloca ptr, align 8
  %6 = alloca ptr, align 8
  %7 = alloca i64, align 8
  %8 = alloca i64, align 8
  %9 = alloca i32, align 4
  %10 = alloca i32, align 4
  %11 = alloca ptr, align 8
  %12 = alloca i32, align 4
  %13 = alloca i32, align 4
  %14 = alloca i32, align 4
  store i32 %0, ptr %2, align 4
  call void @llvm.lifetime.start.p0(i64 8, ptr %3) #8
  store ptr null, ptr %3, align 8
  call void @llvm.lifetime.start.p0(i64 8, ptr %4) #8
  store ptr null, ptr %4, align 8
  call void @llvm.lifetime.start.p0(i64 8, ptr %5) #8
  store ptr null, ptr %5, align 8
  call void @llvm.lifetime.start.p0(i64 8, ptr %6) #8
  store ptr null, ptr %6, align 8
  call void @llvm.lifetime.start.p0(i64 8, ptr %7) #8
  store i64 0, ptr %7, align 8
  call void @llvm.lifetime.start.p0(i64 8, ptr %8) #8
  store i64 0, ptr %8, align 8
  call void @llvm.lifetime.start.p0(i64 4, ptr %9) #8
  call void @llvm.lifetime.start.p0(i64 4, ptr %10) #8
  call void @llvm.lifetime.start.p0(i64 8, ptr %11) #8
  %15 = load i32, ptr %2, align 4
  %16 = call zeroext i1 @dsm_impl_op(i32 noundef 1, i32 noundef %15, i64 noundef 0, ptr noundef %5, ptr noundef %3, ptr noundef %7, i32 noundef 14)
  br i1 %16, label %18, label %17

17:                                               ; preds = %1
  store i32 1, ptr %12, align 4
  br label %91

18:                                               ; preds = %1
  %19 = load ptr, ptr %3, align 8
  store ptr %19, ptr %11, align 8
  %20 = load ptr, ptr %11, align 8
  %21 = load i64, ptr %7, align 8
  %22 = call zeroext i1 @dsm_control_segment_sane(ptr noundef %20, i64 noundef %21)
  br i1 %22, label %26, label %23

23:                                               ; preds = %18
  %24 = load i32, ptr %2, align 4
  %25 = call zeroext i1 @dsm_impl_op(i32 noundef 2, i32 noundef %24, i64 noundef 0, ptr noundef %5, ptr noundef %3, ptr noundef %7, i32 noundef 15)
  store i32 1, ptr %12, align 4
  br label %91

26:                                               ; preds = %18
  %27 = load ptr, ptr %11, align 8
  %28 = getelementptr inbounds nuw %struct.dsm_control_header, ptr %27, i32 0, i32 1
  %29 = load i32, ptr %28, align 4
  store i32 %29, ptr %9, align 4
  store i32 0, ptr %10, align 4
  br label %30

30:                                               ; preds = %74, %26
  %31 = load i32, ptr %10, align 4
  %32 = load i32, ptr %9, align 4
  %33 = icmp ult i32 %31, %32
  br i1 %33, label %34, label %77

34:                                               ; preds = %30
  call void @llvm.lifetime.start.p0(i64 4, ptr %13) #8
  call void @llvm.lifetime.start.p0(i64 4, ptr %14) #8
  %35 = load ptr, ptr %11, align 8
  %36 = getelementptr inbounds nuw %struct.dsm_control_header, ptr %35, i32 0, i32 3
  %37 = load i32, ptr %10, align 4
  %38 = zext i32 %37 to i64
  %39 = getelementptr inbounds nuw [0 x %struct.dsm_control_item], ptr %36, i64 0, i64 %38
  %40 = getelementptr inbounds nuw %struct.dsm_control_item, ptr %39, i32 0, i32 1
  %41 = load i32, ptr %40, align 4
  store i32 %41, ptr %14, align 4
  %42 = load i32, ptr %14, align 4
  %43 = icmp eq i32 %42, 0
  br i1 %43, label %44, label %45

44:                                               ; preds = %34
  store i32 4, ptr %12, align 4
  br label %71

45:                                               ; preds = %34
  %46 = load ptr, ptr %11, align 8
  %47 = getelementptr inbounds nuw %struct.dsm_control_header, ptr %46, i32 0, i32 3
  %48 = load i32, ptr %10, align 4
  %49 = zext i32 %48 to i64
  %50 = getelementptr inbounds nuw [0 x %struct.dsm_control_item], ptr %47, i64 0, i64 %49
  %51 = getelementptr inbounds nuw %struct.dsm_control_item, ptr %50, i32 0, i32 0
  %52 = load i32, ptr %51, align 8
  store i32 %52, ptr %13, align 4
  %53 = load i32, ptr %13, align 4
  %54 = call zeroext i1 @is_main_region_dsm_handle(i32 noundef %53)
  br i1 %54, label %55, label %56

55:                                               ; preds = %45
  store i32 4, ptr %12, align 4
  br label %71

56:                                               ; preds = %45
  br label %57

57:                                               ; preds = %56
  br i1 false, label %58, label %60

58:                                               ; preds = %57
  %59 = call zeroext i1 @errstart_cold(i32 noundef 13, ptr noundef null) #9
  br i1 %59, label %62, label %66

60:                                               ; preds = %57
  %61 = call zeroext i1 @errstart(i32 noundef 13, ptr noundef null)
  br i1 %61, label %62, label %66

62:                                               ; preds = %60, %58
  %63 = load i32, ptr %13, align 4
  %64 = load i32, ptr %14, align 4
  %65 = call i32 (ptr, ...) @errmsg_internal(ptr noundef @.str.3, i32 noundef %63, i32 noundef %64)
  call void @errfinish(ptr noundef @.str.1, i32 noundef 294, ptr noundef @__func__.dsm_cleanup_using_control_segment)
  br label %66

66:                                               ; preds = %62, %60, %58
  br label %67

67:                                               ; preds = %66
  br label %68

68:                                               ; preds = %67
  %69 = load i32, ptr %13, align 4
  %70 = call zeroext i1 @dsm_impl_op(i32 noundef 3, i32 noundef %69, i64 noundef 0, ptr noundef %6, ptr noundef %4, ptr noundef %8, i32 noundef 15)
  store i32 0, ptr %12, align 4
  br label %71

71:                                               ; preds = %68, %55, %44
  call void @llvm.lifetime.end.p0(i64 4, ptr %14) #8
  call void @llvm.lifetime.end.p0(i64 4, ptr %13) #8
  %72 = load i32, ptr %12, align 4
  switch i32 %72, label %94 [
    i32 0, label %73
    i32 4, label %74
  ]

73:                                               ; preds = %71
  br label %74

74:                                               ; preds = %73, %71
  %75 = load i32, ptr %10, align 4
  %76 = add i32 %75, 1
  store i32 %76, ptr %10, align 4
  br label %30, !llvm.loop !7

77:                                               ; preds = %30
  br label %78

78:                                               ; preds = %77
  br i1 false, label %79, label %81

79:                                               ; preds = %78
  %80 = call zeroext i1 @errstart_cold(i32 noundef 13, ptr noundef null) #9
  br i1 %80, label %83, label %86

81:                                               ; preds = %78
  %82 = call zeroext i1 @errstart(i32 noundef 13, ptr noundef null)
  br i1 %82, label %83, label %86

83:                                               ; preds = %81, %79
  %84 = load i32, ptr %2, align 4
  %85 = call i32 (ptr, ...) @errmsg_internal(ptr noundef @.str.4, i32 noundef %84)
  call void @errfinish(ptr noundef @.str.1, i32 noundef 304, ptr noundef @__func__.dsm_cleanup_using_control_segment)
  br label %86

86:                                               ; preds = %83, %81, %79
  br label %87

87:                                               ; preds = %86
  br label %88

88:                                               ; preds = %87
  %89 = load i32, ptr %2, align 4
  %90 = call zeroext i1 @dsm_impl_op(i32 noundef 3, i32 noundef %89, i64 noundef 0, ptr noundef %5, ptr noundef %3, ptr noundef %7, i32 noundef 15)
  store i32 0, ptr %12, align 4
  br label %91

91:                                               ; preds = %88, %23, %17
  call void @llvm.lifetime.end.p0(i64 8, ptr %11) #8
  call void @llvm.lifetime.end.p0(i64 4, ptr %10) #8
  call void @llvm.lifetime.end.p0(i64 4, ptr %9) #8
  call void @llvm.lifetime.end.p0(i64 8, ptr %8) #8
  call void @llvm.lifetime.end.p0(i64 8, ptr %7) #8
  call void @llvm.lifetime.end.p0(i64 8, ptr %6) #8
  call void @llvm.lifetime.end.p0(i64 8, ptr %5) #8
  call void @llvm.lifetime.end.p0(i64 8, ptr %4) #8
  call void @llvm.lifetime.end.p0(i64 8, ptr %3) #8
  %92 = load i32, ptr %12, align 4
  switch i32 %92, label %94 [
    i32 0, label %93
    i32 1, label %93
  ]

93:                                               ; preds = %91, %91
  ret void

94:                                               ; preds = %91, %71
  unreachable
}