; Function Attrs: nounwind uwtable
define dso_local void @dsm_cleanup_using_control_segment(i32 noundef %0) local_unnamed_addr #0 {
  %2 = alloca ptr, align 8
  %3 = alloca ptr, align 8
  %4 = alloca ptr, align 8
  %5 = alloca ptr, align 8
  %6 = alloca i64, align 8
  %7 = alloca i64, align 8
  call void @llvm.lifetime.start.p0(i64 8, ptr nonnull %2) #12
  store ptr null, ptr %2, align 8
  call void @llvm.lifetime.start.p0(i64 8, ptr nonnull %3) #12
  store ptr null, ptr %3, align 8
  call void @llvm.lifetime.start.p0(i64 8, ptr nonnull %4) #12
  store ptr null, ptr %4, align 8
  call void @llvm.lifetime.start.p0(i64 8, ptr nonnull %5) #12
  store ptr null, ptr %5, align 8
  call void @llvm.lifetime.start.p0(i64 8, ptr nonnull %6) #12
  store i64 0, ptr %6, align 8
  call void @llvm.lifetime.start.p0(i64 8, ptr nonnull %7) #12
  store i64 0, ptr %7, align 8
  %8 = call zeroext i1 @dsm_impl_op(i32 noundef 1, i32 noundef %0, i64 noundef 0, ptr noundef nonnull %4, ptr noundef nonnull %2, ptr noundef nonnull %6, i32 noundef 14) #12
  br i1 %8, label %9, label %45

9:                                                ; preds = %1
  %10 = load ptr, ptr %2, align 8
  %11 = load i64, ptr %6, align 8
  %12 = icmp ult i64 %11, 16
  br i1 %12, label %.sink.split, label %13

13:                                               ; preds = %9
  %14 = load i32, ptr %10, align 8
  %.not.i = icmp eq i32 %14, -1706017486
  br i1 %.not.i, label %15, label %.sink.split

15:                                               ; preds = %13
  %16 = getelementptr inbounds nuw i8, ptr %10, i64 8
  %17 = load i32, ptr %16, align 8
  %18 = zext i32 %17 to i64
  %19 = mul nuw nsw i64 %18, 40
  %20 = add nuw nsw i64 %19, 16
  %21 = icmp ugt i64 %20, %11
  br i1 %21, label %.sink.split, label %dsm_control_segment_sane.exit

dsm_control_segment_sane.exit:                    ; preds = %15
  %22 = getelementptr inbounds nuw i8, ptr %10, i64 4
  %23 = load i32, ptr %22, align 4
  %.not = icmp ugt i32 %23, %17
  br i1 %.not, label %.sink.split, label %24

24:                                               ; preds = %dsm_control_segment_sane.exit
  %.not21 = icmp eq i32 %23, 0
  br i1 %.not21, label %._crit_edge, label %.lr.ph

.lr.ph:                                           ; preds = %24
  %25 = getelementptr inbounds nuw i8, ptr %10, i64 16
  %wide.trip.count = zext i32 %23 to i64
  br label %26

26:                                               ; preds = %.lr.ph, %40
  %indvars.iv = phi i64 [ 0, %.lr.ph ], [ %indvars.iv.next, %40 ]
  %27 = getelementptr inbounds nuw [0 x %struct.dsm_control_item], ptr %25, i64 0, i64 %indvars.iv
  %28 = getelementptr inbounds nuw i8, ptr %27, i64 4
  %29 = load i32, ptr %28, align 4
  %30 = icmp eq i32 %29, 0
  br i1 %30, label %40, label %31

31:                                               ; preds = %26
  %32 = load i32, ptr %27, align 8
  %33 = and i32 %32, 1
  %.not19 = icmp eq i32 %33, 0
  br i1 %.not19, label %34, label %40

34:                                               ; preds = %31
  %35 = call zeroext i1 @errstart(i32 noundef 13, ptr noundef null) #12
  br i1 %35, label %36, label %38

36:                                               ; preds = %34
  %37 = call i32 (ptr, ...) @errmsg_internal(ptr noundef nonnull @.str.3, i32 noundef %32, i32 noundef %29) #12
  call void @errfinish(ptr noundef nonnull @.str.1, i32 noundef 294, ptr noundef nonnull @__func__.dsm_cleanup_using_control_segment) #12
  br label %38

38:                                               ; preds = %36, %34
  %39 = call zeroext i1 @dsm_impl_op(i32 noundef 3, i32 noundef %32, i64 noundef 0, ptr noundef nonnull %5, ptr noundef nonnull %3, ptr noundef nonnull %7, i32 noundef 15) #12
  br label %40

40:                                               ; preds = %31, %26, %38
  %indvars.iv.next = add nuw nsw i64 %indvars.iv, 1
  %exitcond.not = icmp eq i64 %indvars.iv.next, %wide.trip.count
  br i1 %exitcond.not, label %._crit_edge, label %26, !llvm.loop !7

._crit_edge:                                      ; preds = %40, %24
  %41 = call zeroext i1 @errstart(i32 noundef 13, ptr noundef null) #12
  br i1 %41, label %42, label %.sink.split

42:                                               ; preds = %._crit_edge
  %43 = call i32 (ptr, ...) @errmsg_internal(ptr noundef nonnull @.str.4, i32 noundef %0) #12
  call void @errfinish(ptr noundef nonnull @.str.1, i32 noundef 304, ptr noundef nonnull @__func__.dsm_cleanup_using_control_segment) #12
  br label %.sink.split

.sink.split:                                      ; preds = %._crit_edge, %42, %dsm_control_segment_sane.exit, %9, %13, %15
  %.sink = phi i32 [ 2, %15 ], [ 2, %13 ], [ 2, %9 ], [ 2, %dsm_control_segment_sane.exit ], [ 3, %42 ], [ 3, %._crit_edge ]
  %44 = call zeroext i1 @dsm_impl_op(i32 noundef %.sink, i32 noundef %0, i64 noundef 0, ptr noundef nonnull %4, ptr noundef nonnull %2, ptr noundef nonnull %6, i32 noundef 15) #12
  br label %45

45:                                               ; preds = %.sink.split, %1
  call void @llvm.lifetime.end.p0(i64 8, ptr nonnull %7) #12
  call void @llvm.lifetime.end.p0(i64 8, ptr nonnull %6) #12
  call void @llvm.lifetime.end.p0(i64 8, ptr nonnull %5) #12
  call void @llvm.lifetime.end.p0(i64 8, ptr nonnull %4) #12
  call void @llvm.lifetime.end.p0(i64 8, ptr nonnull %3) #12
  call void @llvm.lifetime.end.p0(i64 8, ptr nonnull %2) #12
  ret void
}